; Function Attrs: nounwind uwtable
define hidden zeroext i1 @Wayland_GLES_LoadLibrary(ptr noundef %0, ptr noundef %1) local_unnamed_addr #0 {
  %3 = getelementptr inbounds nuw i8, ptr %0, i64 1656
  %4 = load ptr, ptr %3, align 8
  %5 = getelementptr inbounds nuw i8, ptr %4, i64 8
  %6 = load ptr, ptr %5, align 8
  %7 = getelementptr inbounds nuw i8, ptr %0, i64 1028
  %8 = load i32, ptr %7, align 4
  %9 = tail call zeroext i1 @SDL_EGL_LoadLibrary(ptr noundef %0, ptr noundef %1, ptr noundef %6, i32 noundef %8) #4
  tail call void @Wayland_PumpEvents(ptr noundef %0) #4
  %10 = load ptr, ptr @WAYLAND_wl_display_flush, align 8
  %11 = load ptr, ptr %5, align 8
  %12 = tail call i32 %10(ptr noundef %11) #4
  ret i1 %9
}